target datalayout = "e-m:e-p270:32:32-p271:32:32-p272:64:64-i64:64-i128:128-f80:128-n8:16:32:64-S128"
target triple = "x86_64-pc-linux-gnu"

%struct.AVRational = type { i32, i32 }
%struct.AVCodecContext = type { ptr, i32, i32, ptr, i32, i32, ptr, ptr, ptr, i64, i32, i32, ptr, i32, %struct.AVRational, %struct.AVRational, %struct.AVRational, i32, i32, i32, i32, i32, %struct.AVRational, i32, i32, i32, i32, i32, i32, i32, i32, i32, i32, i32, ptr, ptr, i32, float, float, float, float, float, float, float, float, float, i32, i32, i32, i32, i32, i32, i32, i32, i32, i32, i32, i32, ptr, ptr, ptr, i32, i32, i32, i32, i32, i32, i32, i32, i32, i32, %struct.AVChannelLayout, i32, i32, i32, i32, i32, i32, i32, i32, ptr, i32, i32, i32, float, float, i32, i32, i32, i32, i32, ptr, i64, i64, float, float, i32, i32, ptr, ptr, i32, i32, i32, i32, i32, ptr, ptr, ptr, ptr, i32, i32, [8 x i64], i32, i32, i32, i32, i32, i32, i32, ptr, ptr, i32, i32, i32, i32, i32, i32, i32, i32, i32, i32, ptr, ptr, i32, i32, ptr, ptr, ptr, ptr, i32, i32, i64, i32, i32, i64, ptr, i64, ptr, i32, ptr, i32 }
%struct.AVChannelLayout = type { i32, i32, %union.anon, ptr }
%union.anon = type { i64 }
%struct.AVCodecInternal = type { i32, i32, i32, ptr, ptr, ptr, ptr, ptr, ptr, ptr, i32, ptr, ptr, ptr, i32, i32, ptr, i32, ptr, ptr, i32, i32 }
%struct.AVFrame = type { [8 x ptr], [8 x i32], ptr, i32, i32, i32, i32, i32, %struct.AVRational, i64, i64, %struct.AVRational, i32, ptr, i32, i32, [8 x ptr], ptr, i32, ptr, i32, i32, i32, i32, i32, i32, i32, i64, ptr, i32, ptr, ptr, i64, i64, i64, i64, ptr, %struct.AVChannelLayout, i64 }

; Function Attrs: nounwind uwtable
define i32 @ff_encode_get_frame(ptr noundef %0, ptr noundef %1) #0 {
  %3 = alloca i32, align 4
  %4 = alloca ptr, align 8
  %5 = alloca ptr, align 8
  %6 = alloca ptr, align 8
  %7 = alloca i32, align 4
  store ptr %0, ptr %4, align 8, !tbaa !4
  store ptr %1, ptr %5, align 8, !tbaa !58
  call void @llvm.lifetime.start.p0(i64 8, ptr %6) #10
  %8 = load ptr, ptr %4, align 8, !tbaa !4
  %9 = getelementptr inbounds nuw %struct.AVCodecContext, ptr %8, i32 0, i32 7
  %10 = load ptr, ptr %9, align 8, !tbaa !20
  store ptr %10, ptr %6, align 8, !tbaa !59
  %11 = load ptr, ptr %6, align 8, !tbaa !59
  %12 = getelementptr inbounds nuw %struct.AVCodecInternal, ptr %11, i32 0, i32 17
  %13 = load i32, ptr %12, align 8, !tbaa !60
  %14 = icmp ne i32 %13, 0
  br i1 %14, label %15, label %16

15:                                               ; preds = %2
  store i32 -541478725, ptr %3, align 4
  store i32 1, ptr %7, align 4
  br label %30

16:                                               ; preds = %2
  %17 = load ptr, ptr %6, align 8, !tbaa !59
  %18 = getelementptr inbounds nuw %struct.AVCodecInternal, ptr %17, i32 0, i32 19
  %19 = load ptr, ptr %18, align 8, !tbaa !61
  %20 = getelementptr inbounds nuw %struct.AVFrame, ptr %19, i32 0, i32 16
  %21 = getelementptr inbounds [8 x ptr], ptr %20, i64 0, i64 0
  %22 = load ptr, ptr %21, align 8, !tbaa !62
  %23 = icmp ne ptr %22, null
  br i1 %23, label %25, label %24

24:                                               ; preds = %16
  store i32 -11, ptr %3, align 4
  store i32 1, ptr %7, align 4
  br label %30

25:                                               ; preds = %16
  %26 = load ptr, ptr %5, align 8, !tbaa !58
  %27 = load ptr, ptr %6, align 8, !tbaa !59
  %28 = getelementptr inbounds nuw %struct.AVCodecInternal, ptr %27, i32 0, i32 19
  %29 = load ptr, ptr %28, align 8, !tbaa !61
  call void @av_frame_move_ref(ptr noundef %26, ptr noundef %29)
  store i32 0, ptr %3, align 4
  store i32 1, ptr %7, align 4
  br label %30

30:                                               ; preds = %25, %24, %15
  call void @llvm.lifetime.end.p0(i64 8, ptr %6) #10
  %31 = load i32, ptr %3, align 4
  ret i32 %31
}