; Function Attrs: nounwind uwtable
define range(i32 -541478725, 1) i32 @ff_encode_get_frame(ptr noundef readonly captures(none) %0, ptr noundef %1) local_unnamed_addr #0 {
  %3 = getelementptr inbounds nuw i8, ptr %0, i64 40
  %4 = load ptr, ptr %3, align 8, !tbaa !15
  %5 = getelementptr inbounds nuw i8, ptr %4, i64 120
  %6 = load i32, ptr %5, align 8, !tbaa !49
  %.not = icmp eq i32 %6, 0
  br i1 %.not, label %7, label %13

7:                                                ; preds = %2
  %8 = getelementptr inbounds nuw i8, ptr %4, i64 136
  %9 = load ptr, ptr %8, align 8, !tbaa !50
  %10 = getelementptr inbounds nuw i8, ptr %9, i64 184
  %11 = load ptr, ptr %10, align 8, !tbaa !51
  %.not5 = icmp eq ptr %11, null
  br i1 %.not5, label %13, label %12

12:                                               ; preds = %7
  tail call void @av_frame_move_ref(ptr noundef %1, ptr noundef nonnull %9) #8
  br label %13

13:                                               ; preds = %7, %2, %12
  %.0 = phi i32 [ 0, %12 ], [ -541478725, %2 ], [ -11, %7 ]
  ret i32 %.0
}